; Function Attrs: nofree norecurse nosync nounwind memory(read, inaccessiblemem: none) uwtable
define dso_local i64 @brin_minmax_multi_distance_uuid(ptr noundef readonly captures(none) %0) local_unnamed_addr #5 {
  %2 = getelementptr inbounds nuw i8, ptr %0, i64 32
  %3 = load i64, ptr %2, align 8
  %4 = getelementptr inbounds nuw i8, ptr %0, i64 48
  %5 = load i64, ptr %4, align 8
  %6 = inttoptr i64 %3 to ptr
  %7 = inttoptr i64 %5 to ptr
  br label %8

8:                                                ; preds = %1, %8
  %indvars.iv = phi i64 [ 15, %1 ], [ %indvars.iv.next, %8 ]
  %.01213 = phi double [ 0.000000e+00, %1 ], [ %18, %8 ]
  %9 = getelementptr inbounds nuw [16 x i8], ptr %7, i64 0, i64 %indvars.iv
  %10 = load i8, ptr %9, align 1
  %11 = zext i8 %10 to i32
  %12 = getelementptr inbounds nuw [16 x i8], ptr %6, i64 0, i64 %indvars.iv
  %13 = load i8, ptr %12, align 1
  %14 = zext i8 %13 to i32
  %15 = sub nsw i32 %11, %14
  %16 = sitofp i32 %15 to double
  %17 = fadd double %.01213, %16
  %18 = fmul double %17, 3.906250e-03
  %indvars.iv.next = add nsw i64 %indvars.iv, -1
  %.not = icmp eq i64 %indvars.iv, 0
  br i1 %.not, label %19, label %8, !llvm.loop !4

19:                                               ; preds = %8
  %20 = bitcast double %18 to i64
  ret i64 %20
}